; Function Attrs: nounwind uwtable
define range(i32 -67, 1) i32 @pmix_shmem_segment_attach(ptr noundef %0, i64 noundef %1, i8 noundef zeroext %2) local_unnamed_addr #0 {
  %4 = tail call fastcc i32 @segment_attach(ptr noundef %0, i64 noundef %1, i8 noundef zeroext %2)
  %5 = icmp eq i32 %4, 0
  br i1 %5, label %6, label %10

6:                                                ; preds = %3
  %7 = getelementptr inbounds nuw i8, ptr %0, i64 136
  %8 = load ptr, ptr %7, align 8, !tbaa !14
  %9 = atomicrmw volatile add ptr %8, i32 1 monotonic, align 4
  br label %10

10:                                               ; preds = %6, %3
  ret i32 %4
}